; Function Attrs: nounwind sspstrong uwtable
define dso_local void @tcg_gen_gvec_addi(i32 noundef %0, i32 noundef %1, i32 noundef %2, i64 noundef %3, i32 noundef %4, i32 noundef %5) local_unnamed_addr #2 {
  %7 = tail call ptr @tcg_constant_i64(i64 noundef %3) #10
  %8 = icmp ult i32 %0, 4
  tail call void @llvm.assume(i1 %8)
  %9 = zext nneg i32 %0 to i64
  %10 = getelementptr inbounds nuw [4 x %struct.GVecGen2s], ptr @tcg_gen_gvec_adds.g, i64 0, i64 %9
  tail call void @tcg_gen_gvec_2s(i32 noundef %1, i32 noundef %2, i32 noundef %4, i32 noundef %5, ptr noundef %7, ptr noundef nonnull %10)
  ret void
}